
ThrowAndCatch.o:     file format elf64-x86-64


Disassembly of section .text:

0000000000000000 <_ZSt9terminatev>:
   0:	55                   	push   rbp
   1:	48 89 e5             	mov    rbp,rsp
   4:	5d                   	pop    rbp
   5:	c3                   	ret
   6:	66 2e 0f 1f 84 00 00 	cs nop WORD PTR [rax+rax*1+0x0]
   d:	00 00 00 

0000000000000010 <_Z5raisev>:
  10:	55                   	push   rbp
  11:	48 89 e5             	mov    rbp,rsp
  14:	bf 01 00 00 00       	mov    edi,0x1
  19:	e8 00 00 00 00       	call   1e <_Z5raisev+0xe>
  1e:	48 89 c7             	mov    rdi,rax
  21:	48 8d 35 00 00 00 00 	lea    rsi,[rip+0x0]        # 28 <_Z5raisev+0x18>
  28:	31 c0                	xor    eax,eax
  2a:	89 c2                	mov    edx,eax
  2c:	e8 00 00 00 00       	call   31 <_Z5raisev+0x21>
  31:	66 66 66 66 66 66 2e 	data16 data16 data16 data16 data16 cs nop WORD PTR [rax+rax*1+0x0]
  38:	0f 1f 84 00 00 00 00 
  3f:	00 

0000000000000040 <_Z18try_but_dont_catchv>:
  40:	55                   	push   rbp
  41:	48 89 e5             	mov    rbp,rsp
  44:	48 83 ec 20          	sub    rsp,0x20
  48:	e8 00 00 00 00       	call   4d <_Z18try_but_dont_catchv+0xd>
  4d:	e9 00 00 00 00       	jmp    52 <_Z18try_but_dont_catchv+0x12>
  52:	e9 41 00 00 00       	jmp    98 <_Z18try_but_dont_catchv+0x58>
  57:	48 89 c1             	mov    rcx,rax
  5a:	89 d0                	mov    eax,edx
  5c:	48 89 4d f8          	mov    QWORD PTR [rbp-0x8],rcx
  60:	89 45 f4             	mov    DWORD PTR [rbp-0xc],eax
  63:	8b 45 f4             	mov    eax,DWORD PTR [rbp-0xc]
  66:	b9 01 00 00 00       	mov    ecx,0x1
  6b:	39 c8                	cmp    eax,ecx
  6d:	0f 85 54 00 00 00    	jne    c7 <_Z18try_but_dont_catchv+0x87>
  73:	48 8b 7d f8          	mov    rdi,QWORD PTR [rbp-0x8]
  77:	e8 00 00 00 00       	call   7c <_Z18try_but_dont_catchv+0x3c>
  7c:	48 89 45 e8          	mov    QWORD PTR [rbp-0x18],rax
  80:	48 8d 3d 00 00 00 00 	lea    rdi,[rip+0x0]        # 87 <_Z18try_but_dont_catchv+0x47>
  87:	31 c0                	xor    eax,eax
  89:	e8 00 00 00 00       	call   8e <_Z18try_but_dont_catchv+0x4e>
  8e:	e9 00 00 00 00       	jmp    93 <_Z18try_but_dont_catchv+0x53>
  93:	e8 00 00 00 00       	call   98 <_Z18try_but_dont_catchv+0x58>
  98:	48 8d 3d 00 00 00 00 	lea    rdi,[rip+0x0]        # 9f <_Z18try_but_dont_catchv+0x5f>
  9f:	b0 00                	mov    al,0x0
  a1:	e8 00 00 00 00       	call   a6 <_Z18try_but_dont_catchv+0x66>
  a6:	48 83 c4 20          	add    rsp,0x20
  aa:	5d                   	pop    rbp
  ab:	c3                   	ret
  ac:	48 89 c1             	mov    rcx,rax
  af:	89 d0                	mov    eax,edx
  b1:	48 89 4d f8          	mov    QWORD PTR [rbp-0x8],rcx
  b5:	89 45 f4             	mov    DWORD PTR [rbp-0xc],eax
  b8:	e8 00 00 00 00       	call   bd <_Z18try_but_dont_catchv+0x7d>
  bd:	e9 00 00 00 00       	jmp    c2 <_Z18try_but_dont_catchv+0x82>
  c2:	e9 00 00 00 00       	jmp    c7 <_Z18try_but_dont_catchv+0x87>
  c7:	48 8b 7d f8          	mov    rdi,QWORD PTR [rbp-0x8]
  cb:	e8 00 00 00 00       	call   d0 <_Z18try_but_dont_catchv+0x90>
  d0:	48 89 c7             	mov    rdi,rax
  d3:	e8 00 00 00 00       	call   d8 <_Z18try_but_dont_catchv+0x98>
  d8:	0f 1f 84 00 00 00 00 	nop    DWORD PTR [rax+rax*1+0x0]
  df:	00 

00000000000000e0 <_Z7catchitv>:
  e0:	55                   	push   rbp
  e1:	48 89 e5             	mov    rbp,rsp
  e4:	48 83 ec 20          	sub    rsp,0x20
  e8:	e8 00 00 00 00       	call   ed <_Z7catchitv+0xd>
  ed:	e9 00 00 00 00       	jmp    f2 <_Z7catchitv+0x12>
  f2:	e9 41 00 00 00       	jmp    138 <_Z7catchitv+0x58>
  f7:	48 89 c1             	mov    rcx,rax
  fa:	89 d0                	mov    eax,edx
  fc:	48 89 4d f8          	mov    QWORD PTR [rbp-0x8],rcx
 100:	89 45 f4             	mov    DWORD PTR [rbp-0xc],eax
 103:	8b 45 f4             	mov    eax,DWORD PTR [rbp-0xc]
 106:	b9 01 00 00 00       	mov    ecx,0x1
 10b:	39 c8                	cmp    eax,ecx
 10d:	0f 85 54 00 00 00    	jne    167 <_Z7catchitv+0x87>
 113:	48 8b 7d f8          	mov    rdi,QWORD PTR [rbp-0x8]
 117:	e8 00 00 00 00       	call   11c <_Z7catchitv+0x3c>
 11c:	48 89 45 e8          	mov    QWORD PTR [rbp-0x18],rax
 120:	48 8d 3d 00 00 00 00 	lea    rdi,[rip+0x0]        # 127 <_Z7catchitv+0x47>
 127:	31 c0                	xor    eax,eax
 129:	e8 00 00 00 00       	call   12e <_Z7catchitv+0x4e>
 12e:	e9 00 00 00 00       	jmp    133 <_Z7catchitv+0x53>
 133:	e8 00 00 00 00       	call   138 <_Z7catchitv+0x58>
 138:	48 8d 3d 00 00 00 00 	lea    rdi,[rip+0x0]        # 13f <_Z7catchitv+0x5f>
 13f:	b0 00                	mov    al,0x0
 141:	e8 00 00 00 00       	call   146 <_Z7catchitv+0x66>
 146:	48 83 c4 20          	add    rsp,0x20
 14a:	5d                   	pop    rbp
 14b:	c3                   	ret
 14c:	48 89 c1             	mov    rcx,rax
 14f:	89 d0                	mov    eax,edx
 151:	48 89 4d f8          	mov    QWORD PTR [rbp-0x8],rcx
 155:	89 45 f4             	mov    DWORD PTR [rbp-0xc],eax
 158:	e8 00 00 00 00       	call   15d <_Z7catchitv+0x7d>
 15d:	e9 00 00 00 00       	jmp    162 <_Z7catchitv+0x82>
 162:	e9 00 00 00 00       	jmp    167 <_Z7catchitv+0x87>
 167:	48 8b 7d f8          	mov    rdi,QWORD PTR [rbp-0x8]
 16b:	e8 00 00 00 00       	call   170 <_Z7catchitv+0x90>
 170:	48 89 c7             	mov    rdi,rax
 173:	e8 00 00 00 00       	call   178 <_Z7catchitv+0x98>
 178:	0f 1f 84 00 00 00 00 	nop    DWORD PTR [rax+rax*1+0x0]
 17f:	00 

0000000000000180 <ThrowAndCatch>:
 180:	55                   	push   rbp
 181:	48 89 e5             	mov    rbp,rsp
 184:	e8 00 00 00 00       	call   189 <ThrowAndCatch+0x9>
 189:	5d                   	pop    rbp
 18a:	c3                   	ret

Disassembly of section .group:

0000000000000000 <.group>:
   0:	01 00                	add    DWORD PTR [rax],eax
   2:	00 00                	add    BYTE PTR [rax],al
   4:	07                   	(bad)
   5:	00 00                	add    BYTE PTR [rax],al
   7:	00 08                	add    BYTE PTR [rax],cl
   9:	00 00                	add    BYTE PTR [rax],al
	...

Disassembly of section .text.__clang_call_terminate:

0000000000000000 <__clang_call_terminate>:
   0:	55                   	push   rbp
   1:	48 89 e5             	mov    rbp,rsp
   4:	e8 00 00 00 00       	call   9 <__clang_call_terminate+0x9>
   9:	e8 00 00 00 00       	call   e <__clang_call_terminate+0xe>

Disassembly of section .group:

0000000000000000 <.group>:
   0:	01 00                	add    DWORD PTR [rax],eax
   2:	00 00                	add    BYTE PTR [rax],al
   4:	0a 00                	or     al,BYTE PTR [rax]
	...

Disassembly of section .group:

0000000000000000 <.group>:
   0:	01 00                	add    DWORD PTR [rax],eax
   2:	00 00                	add    BYTE PTR [rax],al
   4:	0c 00                	or     al,0x0
   6:	00 00                	add    BYTE PTR [rax],al
   8:	0d                   	.byte 0xd
   9:	00 00                	add    BYTE PTR [rax],al
	...

Disassembly of section .group:

0000000000000000 <.group>:
   0:	01 00                	add    DWORD PTR [rax],eax
   2:	00 00                	add    BYTE PTR [rax],al
   4:	0f 00 00             	sldt   WORD PTR [rax]
	...

Disassembly of section .group:

0000000000000000 <.group>:
   0:	01 00                	add    DWORD PTR [rax],eax
   2:	00 00                	add    BYTE PTR [rax],al
   4:	11 00                	adc    DWORD PTR [rax],eax
   6:	00 00                	add    BYTE PTR [rax],al
   8:	12 00                	adc    al,BYTE PTR [rax]
	...

Disassembly of section .group:

0000000000000000 <.group>:
   0:	01 00                	add    DWORD PTR [rax],eax
   2:	00 00                	add    BYTE PTR [rax],al
   4:	17                   	(bad)
   5:	00 00                	add    BYTE PTR [rax],al
   7:	00 18                	add    BYTE PTR [rax],bl
   9:	00 00                	add    BYTE PTR [rax],al
	...

Disassembly of section .llvm_addrsig:

0000000000000000 <.llvm_addrsig>:
   0:	0c 0d                	or     al,0xd
   2:	0e                   	(bad)
   3:	10 11                	adc    BYTE PTR [rcx],dl
   5:	1e                   	(bad)
   6:	12 13                	adc    dl,BYTE PTR [rbx]
   8:	14 16                	adc    al,0x16
   a:	17                   	(bad)
   b:	15 1a 19 0f 1b       	adc    eax,0x1b0f191a
  10:	1c                   	.byte 0x1c
